target datalayout = "e-m:e-p270:32:32-p271:32:32-p272:64:64-i64:64-i128:128-f80:128-n8:16:32:64-S128"
target triple = "x86_64-pc-linux-gnu"

%class.XMMRegister = type { i32 }
%"class.XMMRegister::XMMRegisterImpl" = type { i8 }
%class.Assembler = type { %class.AbstractAssembler, i8, i8, i8, i8, ptr }
%class.AbstractAssembler = type { ptr, ptr, ptr }
%class.InstructionAttr = type { i8, i8, i8, i8, i8, i8, i8, i8, i32, i32, i32, i32, i32, ptr }
%class.CodeSection = type { ptr, ptr, ptr, ptr, ptr, ptr, ptr, ptr, i8, i8, i32, i8, ptr }

@UseAVX = external global i32, align 4
@all_XMMRegisterImpls = external hidden global [33 x %"class.XMMRegister::XMMRegisterImpl"], align 16

; Function Attrs: mustprogress nounwind uwtable
define linkonce_odr hidden void @_ZN11CodeSection7set_endEPh(ptr noundef nonnull align 8 dereferenceable(88) %0, ptr noundef %1) #1 comdat align 2 {
  %3 = alloca ptr, align 8
  %4 = alloca ptr, align 8
  store ptr %0, ptr %3, align 8
  store ptr %1, ptr %4, align 8
  %5 = load ptr, ptr %3, align 8
  %6 = load ptr, ptr %4, align 8
  %7 = getelementptr inbounds %class.CodeSection, ptr %5, i32 0, i32 2
  store ptr %6, ptr %7, align 8
  ret void
}

; Function Attrs: mustprogress nounwind uwtable
define linkonce_odr hidden noundef ptr @_ZNK11CodeSection3endEv(ptr noundef nonnull align 8 dereferenceable(88) %0) #1 comdat align 2 {
  %2 = alloca ptr, align 8
  store ptr %0, ptr %2, align 8
  %3 = load ptr, ptr %2, align 8
  %4 = getelementptr inbounds %class.CodeSection, ptr %3, i32 0, i32 2
  %5 = load ptr, ptr %4, align 8
  ret ptr %5
}

; Function Attrs: mustprogress nounwind uwtable
define linkonce_odr hidden noundef zeroext i8 @_Z12checked_castIhiET_T0_(i32 noundef %0) #1 comdat {
  %2 = alloca i32, align 4
  %3 = alloca i8, align 1
  store i32 %0, ptr %2, align 4
  %4 = load i32, ptr %2, align 4
  %5 = trunc i32 %4 to i8
  store i8 %5, ptr %3, align 1
  %6 = load i8, ptr %3, align 1
  ret i8 %6
}

; Function Attrs: mustprogress nounwind uwtable
define linkonce_odr hidden noundef i32 @_Z12checked_castIilET_T0_(i64 noundef %0) #1 comdat {
  %2 = alloca i64, align 8
  %3 = alloca i32, align 4
  store i64 %0, ptr %2, align 8
  %4 = load i64, ptr %2, align 8
  %5 = trunc i64 %4 to i32
  store i32 %5, ptr %3, align 4
  %6 = load i32, ptr %3, align 4
  ret i32 %6
}

; Function Attrs: mustprogress nounwind uwtable
define linkonce_odr hidden void @_ZN9Assembler16clear_attributesEv(ptr noundef nonnull align 8 dereferenceable(40) %0) #1 comdat align 2 {
  %2 = alloca ptr, align 8
  store ptr %0, ptr %2, align 8
  %3 = load ptr, ptr %2, align 8
  %4 = getelementptr inbounds %class.Assembler, ptr %3, i32 0, i32 5
  store ptr null, ptr %4, align 8
  ret void
}

; Function Attrs: mustprogress nounwind uwtable
define linkonce_odr hidden void @_ZN11CodeSection10emit_int16Ehh(ptr noundef nonnull align 8 dereferenceable(88) %0, i8 noundef zeroext %1, i8 noundef zeroext %2) #1 comdat align 2 {
  %4 = alloca ptr, align 8
  %5 = alloca i8, align 1
  %6 = alloca i8, align 1
  %7 = alloca ptr, align 8
  store ptr %0, ptr %4, align 8
  store i8 %1, ptr %5, align 1
  store i8 %2, ptr %6, align 1
  %8 = load ptr, ptr %4, align 8
  %9 = call noundef ptr @_ZNK11CodeSection3endEv(ptr noundef nonnull align 8 dereferenceable(88) %8)
  store ptr %9, ptr %7, align 8
  %10 = load i8, ptr %5, align 1
  %11 = load ptr, ptr %7, align 8
  %12 = getelementptr inbounds i8, ptr %11, i32 1
  store ptr %12, ptr %7, align 8
  store i8 %10, ptr %11, align 1
  %13 = load i8, ptr %6, align 1
  %14 = load ptr, ptr %7, align 8
  %15 = getelementptr inbounds i8, ptr %14, i32 1
  store ptr %15, ptr %7, align 8
  store i8 %13, ptr %14, align 1
  %16 = load ptr, ptr %7, align 8
  call void @_ZN11CodeSection7set_endEPh(ptr noundef nonnull align 8 dereferenceable(88) %8, ptr noundef %16)
  ret void
}

; Function Attrs: mustprogress nounwind uwtable
define linkonce_odr hidden noundef zeroext i8 @_ZNK17AbstractAssembler11narrow_castIhEET_i(ptr noundef nonnull align 8 dereferenceable(24) %0, i32 noundef %1) #1 comdat align 2 {
  %3 = alloca i8, align 1
  %4 = alloca ptr, align 8
  %5 = alloca i32, align 4
  store ptr %0, ptr %4, align 8
  store i32 %1, ptr %5, align 4
  %6 = load i32, ptr %5, align 4
  %7 = icmp slt i32 %6, 0
  br i1 %7, label %8, label %11

8:                                                ; preds = %2
  %9 = load i32, ptr %5, align 4
  %10 = trunc i32 %9 to i8
  store i8 %10, ptr %3, align 1
  br label %14

11:                                               ; preds = %2
  %12 = load i32, ptr %5, align 4
  %13 = call noundef zeroext i8 @_Z12checked_castIhiET_T0_(i32 noundef %12)
  store i8 %13, ptr %3, align 1
  br label %14

14:                                               ; preds = %11, %8
  %15 = load i8, ptr %3, align 1
  ret i8 %15
}

; Function Attrs: mustprogress nounwind uwtable
define linkonce_odr hidden noundef ptr @_ZNK17AbstractAssembler12code_sectionEv(ptr noundef nonnull align 8 dereferenceable(24) %0) #1 comdat align 2 {
  %2 = alloca ptr, align 8
  store ptr %0, ptr %2, align 8
  %3 = load ptr, ptr %2, align 8
  %4 = getelementptr inbounds %class.AbstractAssembler, ptr %3, i32 0, i32 1
  %5 = load ptr, ptr %4, align 8
  ret ptr %5
}

; Function Attrs: mustprogress nounwind uwtable
define linkonce_odr hidden noundef i32 @_ZNK11XMMRegister15XMMRegisterImpl12raw_encodingEv(ptr noundef nonnull align 1 dereferenceable(1) %0) #1 comdat align 2 {
  %2 = alloca ptr, align 8
  store ptr %0, ptr %2, align 8
  %3 = load ptr, ptr %2, align 8
  %4 = call noundef ptr @_ZN11XMMRegister15XMMRegisterImpl5firstEv()
  %5 = ptrtoint ptr %3 to i64
  %6 = ptrtoint ptr %4 to i64
  %7 = sub i64 %5, %6
  %8 = call noundef i32 @_Z12checked_castIilET_T0_(i64 noundef %7)
  ret i32 %8
}

; Function Attrs: mustprogress nounwind uwtable
define linkonce_odr hidden noundef ptr @_ZN11XMMRegister15XMMRegisterImpl5firstEv() #1 comdat align 2 {
  ret ptr getelementptr inbounds (%"class.XMMRegister::XMMRegisterImpl", ptr @all_XMMRegisterImpls, i64 1)
}

; Function Attrs: mustprogress nounwind uwtable
define linkonce_odr hidden void @_ZN15InstructionAttrD2Ev(ptr noundef nonnull align 8 dereferenceable(40) %0) unnamed_addr #1 comdat align 2 {
  %2 = alloca ptr, align 8
  store ptr %0, ptr %2, align 8
  %3 = load ptr, ptr %2, align 8
  %4 = getelementptr inbounds %class.InstructionAttr, ptr %3, i32 0, i32 13
  %5 = load ptr, ptr %4, align 8
  %6 = icmp ne ptr %5, null
  br i1 %6, label %7, label %10

7:                                                ; preds = %1
  %8 = getelementptr inbounds %class.InstructionAttr, ptr %3, i32 0, i32 13
  %9 = load ptr, ptr %8, align 8
  call void @_ZN9Assembler16clear_attributesEv(ptr noundef nonnull align 8 dereferenceable(40) %9)
  br label %10

10:                                               ; preds = %7, %1
  ret void
}

; Function Attrs: mustprogress nounwind uwtable
define linkonce_odr hidden void @_ZN17AbstractAssembler10emit_int16Eii(ptr noundef nonnull align 8 dereferenceable(24) %0, i32 noundef %1, i32 noundef %2) #1 comdat align 2 {
  %4 = alloca ptr, align 8
  %5 = alloca i32, align 4
  %6 = alloca i32, align 4
  store ptr %0, ptr %4, align 8
  store i32 %1, ptr %5, align 4
  store i32 %2, ptr %6, align 4
  %7 = load ptr, ptr %4, align 8
  %8 = call noundef ptr @_ZNK17AbstractAssembler12code_sectionEv(ptr noundef nonnull align 8 dereferenceable(24) %7)
  %9 = load i32, ptr %5, align 4
  %10 = call noundef zeroext i8 @_ZNK17AbstractAssembler11narrow_castIhEET_i(ptr noundef nonnull align 8 dereferenceable(24) %7, i32 noundef %9)
  %11 = load i32, ptr %6, align 4
  %12 = call noundef zeroext i8 @_ZNK17AbstractAssembler11narrow_castIhEET_i(ptr noundef nonnull align 8 dereferenceable(24) %7, i32 noundef %11)
  call void @_ZN11CodeSection10emit_int16Ehh(ptr noundef nonnull align 8 dereferenceable(88) %8, i8 noundef zeroext %10, i8 noundef zeroext %12)
  ret void
}

; Function Attrs: mustprogress nounwind uwtable
define linkonce_odr hidden noundef i32 @_ZNK11XMMRegister15XMMRegisterImpl8encodingEv(ptr noundef nonnull align 1 dereferenceable(1) %0) #1 comdat align 2 {
  %2 = alloca ptr, align 8
  store ptr %0, ptr %2, align 8
  %3 = load ptr, ptr %2, align 8
  %4 = call noundef i32 @_ZNK11XMMRegister15XMMRegisterImpl12raw_encodingEv(ptr noundef nonnull align 1 dereferenceable(1) %3)
  ret i32 %4
}

; Function Attrs: mustprogress nounwind uwtable
define linkonce_odr hidden noundef ptr @_ZNK11XMMRegisterptEv(ptr noundef nonnull align 4 dereferenceable(4) %0) #1 comdat align 2 {
  %2 = alloca ptr, align 8
  store ptr %0, ptr %2, align 8
  %3 = load ptr, ptr %2, align 8
  %4 = call noundef ptr @_ZN11XMMRegister15XMMRegisterImpl5firstEv()
  %5 = getelementptr inbounds %class.XMMRegister, ptr %3, i32 0, i32 0
  %6 = load i32, ptr %5, align 4
  %7 = sext i32 %6 to i64
  %8 = getelementptr inbounds %"class.XMMRegister::XMMRegisterImpl", ptr %4, i64 %7
  ret ptr %8
}

; Function Attrs: mustprogress nounwind uwtable
define linkonce_odr hidden void @_ZN15InstructionAttrC2Eibbbb(ptr noundef nonnull align 8 dereferenceable(40) %0, i32 noundef %1, i1 noundef zeroext %2, i1 noundef zeroext %3, i1 noundef zeroext %4, i1 noundef zeroext %5) unnamed_addr #1 comdat align 2 {
  %7 = alloca ptr, align 8
  %8 = alloca i32, align 4
  %9 = alloca i8, align 1
  %10 = alloca i8, align 1
  %11 = alloca i8, align 1
  %12 = alloca i8, align 1
  store ptr %0, ptr %7, align 8
  store i32 %1, ptr %8, align 4
  %13 = zext i1 %2 to i8
  store i8 %13, ptr %9, align 1
  %14 = zext i1 %3 to i8
  store i8 %14, ptr %10, align 1
  %15 = zext i1 %4 to i8
  store i8 %15, ptr %11, align 1
  %16 = zext i1 %5 to i8
  store i8 %16, ptr %12, align 1
  %17 = load ptr, ptr %7, align 8
  %18 = getelementptr inbounds %class.InstructionAttr, ptr %17, i32 0, i32 0
  %19 = load i8, ptr %9, align 1
  %20 = trunc i8 %19 to i1
  %21 = zext i1 %20 to i8
  store i8 %21, ptr %18, align 8
  %22 = getelementptr inbounds %class.InstructionAttr, ptr %17, i32 0, i32 1
  %23 = load i8, ptr %10, align 1
  %24 = trunc i8 %23 to i1
  br i1 %24, label %28, label %25

25:                                               ; preds = %6
  %26 = load i32, ptr @UseAVX, align 4
  %27 = icmp slt i32 %26, 3
  br label %28

28:                                               ; preds = %25, %6
  %29 = phi i1 [ true, %6 ], [ %27, %25 ]
  %30 = zext i1 %29 to i8
  store i8 %30, ptr %22, align 1
  %31 = getelementptr inbounds %class.InstructionAttr, ptr %17, i32 0, i32 2
  %32 = load i8, ptr %11, align 1
  %33 = trunc i8 %32 to i1
  %34 = zext i1 %33 to i8
  store i8 %34, ptr %31, align 2
  %35 = getelementptr inbounds %class.InstructionAttr, ptr %17, i32 0, i32 3
  %36 = load i8, ptr %12, align 1
  %37 = trunc i8 %36 to i1
  %38 = zext i1 %37 to i8
  store i8 %38, ptr %35, align 1
  %39 = getelementptr inbounds %class.InstructionAttr, ptr %17, i32 0, i32 4
  store i8 0, ptr %39, align 4
  %40 = getelementptr inbounds %class.InstructionAttr, ptr %17, i32 0, i32 5
  store i8 0, ptr %40, align 1
  %41 = getelementptr inbounds %class.InstructionAttr, ptr %17, i32 0, i32 6
  store i8 1, ptr %41, align 2
  %42 = getelementptr inbounds %class.InstructionAttr, ptr %17, i32 0, i32 7
  store i8 0, ptr %42, align 1
  %43 = getelementptr inbounds %class.InstructionAttr, ptr %17, i32 0, i32 8
  %44 = load i32, ptr %8, align 4
  store i32 %44, ptr %43, align 8
  %45 = getelementptr inbounds %class.InstructionAttr, ptr %17, i32 0, i32 9
  store i32 24, ptr %45, align 4
  %46 = getelementptr inbounds %class.InstructionAttr, ptr %17, i32 0, i32 10
  store i32 4, ptr %46, align 8
  %47 = getelementptr inbounds %class.InstructionAttr, ptr %17, i32 0, i32 11
  store i32 0, ptr %47, align 4
  %48 = getelementptr inbounds %class.InstructionAttr, ptr %17, i32 0, i32 12
  store i32 0, ptr %48, align 8
  %49 = getelementptr inbounds %class.InstructionAttr, ptr %17, i32 0, i32 13
  store ptr null, ptr %49, align 8
  ret void
}

; Function Attrs: mustprogress nounwind uwtable
define hidden void @_ZN9Assembler6vpabsbE11XMMRegisterS0_i(ptr noundef nonnull align 8 dereferenceable(40) %0, i32 %1, i32 %2, i32 noundef %3) #1 align 2 {
  %5 = alloca %class.XMMRegister, align 4
  %6 = alloca %class.XMMRegister, align 4
  %7 = alloca ptr, align 8
  %8 = alloca i32, align 4
  %9 = alloca %class.InstructionAttr, align 8
  %10 = alloca i32, align 4
  %11 = getelementptr inbounds %class.XMMRegister, ptr %5, i32 0, i32 0
  store i32 %1, ptr %11, align 4
  %12 = getelementptr inbounds %class.XMMRegister, ptr %6, i32 0, i32 0
  store i32 %2, ptr %12, align 4
  store ptr %0, ptr %7, align 8
  store i32 %3, ptr %8, align 4
  %13 = load ptr, ptr %7, align 8
  %14 = load i32, ptr %8, align 4
  %15 = getelementptr inbounds %class.Assembler, ptr %13, i32 0, i32 1
  %16 = load i8, ptr %15, align 8
  %17 = trunc i8 %16 to i1
  call void @_ZN15InstructionAttrC2Eibbbb(ptr noundef nonnull align 8 dereferenceable(40) %9, i32 noundef %14, i1 noundef zeroext false, i1 noundef zeroext %17, i1 noundef zeroext true, i1 noundef zeroext true)
  %18 = call noundef ptr @_ZNK11XMMRegisterptEv(ptr noundef nonnull align 4 dereferenceable(4) %5)
  %19 = call noundef i32 @_ZNK11XMMRegister15XMMRegisterImpl8encodingEv(ptr noundef nonnull align 1 dereferenceable(1) %18)
  %20 = call noundef ptr @_ZNK11XMMRegisterptEv(ptr noundef nonnull align 4 dereferenceable(4) %6)
  %21 = call noundef i32 @_ZNK11XMMRegister15XMMRegisterImpl8encodingEv(ptr noundef nonnull align 1 dereferenceable(1) %20)
  %22 = call noundef i32 @_ZN9Assembler21vex_prefix_and_encodeEiiiNS_13VexSimdPrefixENS_9VexOpcodeEP15InstructionAttrb(ptr noundef nonnull align 8 dereferenceable(40) %13, i32 noundef %19, i32 noundef 0, i32 noundef %21, i32 noundef 1, i32 noundef 2, ptr noundef %9, i1 noundef zeroext false)
  store i32 %22, ptr %10, align 4
  %23 = load i32, ptr %10, align 4
  %24 = or i32 192, %23
  call void @_ZN17AbstractAssembler10emit_int16Eii(ptr noundef nonnull align 8 dereferenceable(24) %13, i32 noundef 28, i32 noundef %24)
  call void @_ZN15InstructionAttrD2Ev(ptr noundef nonnull align 8 dereferenceable(40) %9) #8
  ret void
}