; Function Attrs: mustprogress nofree norecurse nosync nounwind willreturn memory(readwrite, inaccessiblemem: none) uwtable
define hidden void @_ZN9Assembler6vpabsbE11XMMRegisterS0_i(ptr noundef nonnull align 8 dereferenceable(40) %0, i32 %1, i32 %2, i32 noundef %3) local_unnamed_addr #8 align 2 {
  %5 = alloca %class.InstructionAttr, align 8
  %6 = getelementptr inbounds i8, ptr %0, i64 24
  %7 = load i8, ptr %6, align 8
  %8 = trunc i8 %7 to i1
  store i8 0, ptr %5, align 8
  %9 = getelementptr inbounds i8, ptr %5, i64 1
  %10 = load i32, ptr @UseAVX, align 4
  %11 = icmp slt i32 %10, 3
  %12 = select i1 %8, i1 true, i1 %11
  %13 = zext i1 %12 to i8
  store i8 %13, ptr %9, align 1
  %14 = getelementptr inbounds i8, ptr %5, i64 2
  store <4 x i8> <i8 1, i8 1, i8 0, i8 0>, ptr %14, align 2
  %15 = getelementptr inbounds i8, ptr %5, i64 6
  store i8 1, ptr %15, align 2
  %16 = getelementptr inbounds i8, ptr %5, i64 7
  store i8 0, ptr %16, align 1
  %17 = getelementptr inbounds i8, ptr %5, i64 8
  store i32 %3, ptr %17, align 8
  %18 = getelementptr inbounds i8, ptr %5, i64 12
  store <4 x i32> <i32 24, i32 4, i32 0, i32 0>, ptr %18, align 4
  %19 = getelementptr inbounds i8, ptr %5, i64 32
  store ptr null, ptr %19, align 8
  %20 = sext i32 %1 to i64
  %21 = getelementptr inbounds %"class.XMMRegister::XMMRegisterImpl", ptr getelementptr inbounds (i8, ptr @all_XMMRegisterImpls, i64 1), i64 %20
  %22 = ptrtoint ptr %21 to i64
  %23 = trunc i64 %22 to i32
  %24 = sub i32 %23, ptrtoint (ptr getelementptr inbounds (i8, ptr @all_XMMRegisterImpls, i64 1) to i32)
  %25 = sext i32 %2 to i64
  %26 = getelementptr inbounds %"class.XMMRegister::XMMRegisterImpl", ptr getelementptr inbounds (i8, ptr @all_XMMRegisterImpls, i64 1), i64 %25
  %27 = ptrtoint ptr %26 to i64
  %28 = trunc i64 %27 to i32
  %29 = sub i32 %28, ptrtoint (ptr getelementptr inbounds (i8, ptr @all_XMMRegisterImpls, i64 1) to i32)
  %30 = call noundef i32 @_ZN9Assembler21vex_prefix_and_encodeEiiiNS_13VexSimdPrefixENS_9VexOpcodeEP15InstructionAttrb(ptr noundef nonnull align 8 dereferenceable(40) %0, i32 noundef %24, i32 noundef 0, i32 noundef %29, i32 noundef 1, i32 noundef 2, ptr noundef nonnull %5, i1 noundef zeroext false)
  %31 = getelementptr inbounds i8, ptr %0, i64 8
  %32 = load ptr, ptr %31, align 8
  %33 = trunc nuw nsw i32 %30 to i8
  %.0.i2.i = or disjoint i8 %33, -64
  %34 = getelementptr inbounds i8, ptr %32, i64 16
  %35 = load ptr, ptr %34, align 8
  %36 = getelementptr inbounds i8, ptr %35, i64 1
  store i8 28, ptr %35, align 1
  %37 = getelementptr inbounds i8, ptr %35, i64 2
  store i8 %.0.i2.i, ptr %36, align 1
  store ptr %37, ptr %34, align 8
  %38 = load ptr, ptr %19, align 8
  %.not.i = icmp eq ptr %38, null
  br i1 %.not.i, label %_ZN15InstructionAttrD2Ev.exit, label %39

39:                                               ; preds = %4
  %40 = getelementptr inbounds i8, ptr %38, i64 32
  store ptr null, ptr %40, align 8
  br label %_ZN15InstructionAttrD2Ev.exit

_ZN15InstructionAttrD2Ev.exit:                    ; preds = %4, %39
  ret void
}